; Function Attrs: mustprogress uwtable
define hidden void @_ZN12opencv_caffe16DropoutParameter8CopyFromERKS0_(ptr noundef nonnull align 8 dereferenceable(32) %0, ptr noundef nonnull readonly align 8 dereferenceable(32) %1) local_unnamed_addr #3 align 2 personality ptr @__gxx_personality_v0 {
  %3 = icmp eq ptr %1, %0
  br i1 %3, label %_ZN12opencv_caffe16DropoutParameter9MergeFromERKS0_.exit, label %4

4:                                                ; preds = %2
  %5 = getelementptr inbounds nuw i8, ptr %0, i64 16
  %6 = load i32, ptr %5, align 8, !tbaa !71
  %7 = and i32 %6, 3
  %.not.i = icmp eq i32 %7, 0
  br i1 %.not.i, label %11, label %8

8:                                                ; preds = %4
  %9 = getelementptr inbounds nuw i8, ptr %0, i64 24
  store float 5.000000e-01, ptr %9, align 8, !tbaa !519
  %10 = getelementptr inbounds nuw i8, ptr %0, i64 28
  store i8 1, ptr %10, align 4, !tbaa !521
  br label %11

11:                                               ; preds = %8, %4
  store i32 0, ptr %5, align 8
  %12 = getelementptr inbounds nuw i8, ptr %0, i64 8
  %13 = load i64, ptr %12, align 8, !tbaa !8
  %14 = and i64 %13, 1
  %.not1.i = icmp eq i64 %14, 0
  br i1 %.not1.i, label %_ZN12opencv_caffe16DropoutParameter5ClearEv.exit, label %15

15:                                               ; preds = %11
  tail call void @_ZN6google8protobuf8internal16InternalMetadata7DoClearINS0_15UnknownFieldSetEEEvv(ptr noundef nonnull align 8 dereferenceable(8) %12)
  br label %_ZN12opencv_caffe16DropoutParameter5ClearEv.exit

_ZN12opencv_caffe16DropoutParameter5ClearEv.exit: ; preds = %11, %15
  %16 = getelementptr inbounds nuw i8, ptr %1, i64 16
  %17 = load i32, ptr %16, align 8, !tbaa !71
  %18 = and i32 %17, 3
  %.not.i4 = icmp eq i32 %18, 0
  br i1 %.not.i4, label %34, label %19

19:                                               ; preds = %_ZN12opencv_caffe16DropoutParameter5ClearEv.exit
  %20 = and i32 %17, 1
  %.not8.i = icmp eq i32 %20, 0
  br i1 %.not8.i, label %25, label %21

21:                                               ; preds = %19
  %22 = getelementptr inbounds nuw i8, ptr %1, i64 24
  %23 = load float, ptr %22, align 8, !tbaa !519
  %24 = getelementptr inbounds nuw i8, ptr %0, i64 24
  store float %23, ptr %24, align 8, !tbaa !519
  br label %25

25:                                               ; preds = %21, %19
  %26 = and i32 %17, 2
  %.not9.i = icmp eq i32 %26, 0
  br i1 %.not9.i, label %31, label %27

27:                                               ; preds = %25
  %28 = getelementptr inbounds nuw i8, ptr %1, i64 28
  %29 = load i8, ptr %28, align 4, !tbaa !521, !range !126, !noundef !127
  %30 = getelementptr inbounds nuw i8, ptr %0, i64 28
  store i8 %29, ptr %30, align 4, !tbaa !521
  br label %31

31:                                               ; preds = %27, %25
  %32 = load i32, ptr %5, align 8, !tbaa !71
  %33 = or i32 %32, %17
  store i32 %33, ptr %5, align 8, !tbaa !71
  br label %34

34:                                               ; preds = %31, %_ZN12opencv_caffe16DropoutParameter5ClearEv.exit
  %35 = getelementptr inbounds nuw i8, ptr %1, i64 8
  %36 = load i64, ptr %35, align 8, !tbaa !8
  %37 = and i64 %36, 1
  %.not10.i = icmp eq i64 %37, 0
  br i1 %.not10.i, label %_ZN12opencv_caffe16DropoutParameter9MergeFromERKS0_.exit, label %_ZNK6google8protobuf8internal16InternalMetadata14unknown_fieldsINS0_15UnknownFieldSetEEERKT_PFS7_vE.exit.i

_ZNK6google8protobuf8internal16InternalMetadata14unknown_fieldsINS0_15UnknownFieldSetEEERKT_PFS7_vE.exit.i: ; preds = %34
  %38 = and i64 %36, -4
  %39 = inttoptr i64 %38 to ptr
  %40 = getelementptr inbounds nuw i8, ptr %39, i64 8
  tail call void @_ZN6google8protobuf8internal16InternalMetadata11DoMergeFromINS0_15UnknownFieldSetEEEvRKT_(ptr noundef nonnull align 8 dereferenceable(8) %12, ptr noundef nonnull align 8 dereferenceable(24) %40)
  br label %_ZN12opencv_caffe16DropoutParameter9MergeFromERKS0_.exit

_ZN12opencv_caffe16DropoutParameter9MergeFromERKS0_.exit: ; preds = %_ZNK6google8protobuf8internal16InternalMetadata14unknown_fieldsINS0_15UnknownFieldSetEEERKT_PFS7_vE.exit.i, %34, %2
  ret void
}